; Function Attrs: nounwind uwtable
define internal i32 @dissect_tcpopt_echo(ptr noundef %0, ptr noundef %1, ptr noundef %2, ptr readnone captures(none) %3) #0 {
  %5 = alloca i32, align 4
  %6 = load i32, ptr @proto_tcp_option_echo, align 4
  %7 = tail call ptr @proto_tree_add_item(ptr noundef %2, i32 noundef %6, ptr noundef %0, i32 noundef 0, i32 noundef -1, i32 noundef 0) #20
  %8 = load i32, ptr @ett_tcp_opt_echo, align 4
  %9 = tail call ptr @proto_item_add_subtree(ptr noundef %7, i32 noundef %8) #20
  %10 = load i32, ptr @hf_tcp_option_kind, align 4
  %11 = tail call ptr @proto_tree_add_item(ptr noundef %9, i32 noundef %10, ptr noundef %0, i32 noundef 0, i32 noundef 1, i32 noundef 0) #20
  %12 = load i32, ptr @hf_tcp_option_len, align 4
  %13 = tail call ptr @proto_tree_add_item(ptr noundef %9, i32 noundef %12, ptr noundef %0, i32 noundef 1, i32 noundef 1, i32 noundef 0) #20
  %14 = tail call i32 @tvb_reported_length(ptr noundef %0) #20
  %.not.i = icmp eq i32 %14, 6
  br i1 %.not.i, label %tcp_option_len_check.exit, label %15

15:                                               ; preds = %4
  %16 = tail call ptr (ptr, ptr, ptr, ptr, ...) @expert_add_info_format(ptr noundef %1, ptr noundef %13, ptr noundef nonnull @ei_tcp_opt_len_invalid, ptr noundef nonnull @.str.985, i32 noundef 6) #20
  %17 = tail call i32 @tvb_captured_length(ptr noundef %0) #20
  br label %24

tcp_option_len_check.exit:                        ; preds = %4
  %18 = load i32, ptr @hf_tcp_option_echo, align 4
  %19 = call ptr @proto_tree_add_item_ret_uint(ptr noundef %9, i32 noundef %18, ptr noundef %0, i32 noundef 2, i32 noundef 4, i32 noundef 0, ptr noundef nonnull %5) #20
  %20 = load i32, ptr %5, align 4
  call void (ptr, ptr, ...) @proto_item_append_text(ptr noundef %7, ptr noundef nonnull @.str.999, i32 noundef %20) #20
  %21 = load i32, ptr %5, align 4
  %22 = getelementptr i8, ptr %1, i64 8
  %.val = load ptr, ptr %22, align 8
  call void @col_append_str_uint(ptr noundef %.val, i32 noundef 25, ptr noundef nonnull @.str.1000, i32 noundef %21, ptr noundef nonnull @.str.799) #20
  %23 = call i32 @tvb_captured_length(ptr noundef %0) #20
  br label %24

24:                                               ; preds = %tcp_option_len_check.exit, %15
  %.0 = phi i32 [ %23, %tcp_option_len_check.exit ], [ %17, %15 ]
  ret i32 %.0
}